; ModuleID = '33/2392.c'
source_filename = "33/2392.c"
target datalayout = "e-m:e-p270:32:32-p271:32:32-p272:64:64-i64:64-f80:128-n8:16:32:64-S128"
target triple = "x86_64-pc-linux-gnu"

@.str = private unnamed_addr constant [4 x i8] c"%d\0A\00", align 1
@.str.1 = private unnamed_addr constant [3 x i8] c"%s\00", align 1
@.str.2 = private unnamed_addr constant [3 x i8] c"%c\00", align 1
@.str.3 = private unnamed_addr constant [2 x i8] c"\0A\00", align 1

; Function Attrs: noinline nounwind uwtable
define dso_local i32 @main() #0 {
  %1 = alloca i32, align 4
  %2 = alloca [256 x i8], align 16
  %3 = alloca [256 x i8], align 16
  %4 = alloca i32, align 4
  %5 = alloca i32, align 4
  %6 = alloca i32, align 4
  %7 = alloca i32, align 4
  %8 = alloca i32, align 4
  store i32 0, i32* %1, align 4
  %9 = call i32 (i8*, ...) @__isoc99_scanf(i8* getelementptr inbounds ([4 x i8], [4 x i8]* @.str, i64 0, i64 0), i32* %6)
  store i32 0, i32* %4, align 4
  br label %10

10:                                               ; preds = %92, %0
  %11 = load i32, i32* %4, align 4
  %12 = load i32, i32* %6, align 4
  %13 = icmp slt i32 %11, %12
  br i1 %13, label %14, label %95

14:                                               ; preds = %10
  %15 = call i32 (i8*, ...) @__isoc99_scanf(i8* getelementptr inbounds ([3 x i8], [3 x i8]* @.str.1, i64 0, i64 0), [256 x i8]* %2)
  %16 = getelementptr inbounds [256 x i8], [256 x i8]* %2, i64 0, i64 0
  %17 = call i64 @strlen(i8* %16) #3
  %18 = trunc i64 %17 to i32
  store i32 %18, i32* %8, align 4
  store i32 0, i32* %5, align 4
  br label %19

19:                                               ; preds = %72, %14
  %20 = load i32, i32* %5, align 4
  %21 = load i32, i32* %8, align 4
  %22 = icmp slt i32 %20, %21
  br i1 %22, label %23, label %75

23:                                               ; preds = %19
  %24 = load i32, i32* %5, align 4
  %25 = sext i32 %24 to i64
  %26 = getelementptr inbounds [256 x i8], [256 x i8]* %2, i64 0, i64 %25
  %27 = load i8, i8* %26, align 1
  %28 = sext i8 %27 to i32
  %29 = icmp eq i32 %28, 65
  br i1 %29, label %30, label %34

30:                                               ; preds = %23
  %31 = load i32, i32* %5, align 4
  %32 = sext i32 %31 to i64
  %33 = getelementptr inbounds [256 x i8], [256 x i8]* %3, i64 0, i64 %32
  store i8 84, i8* %33, align 1
  br label %71

34:                                               ; preds = %23
  %35 = load i32, i32* %5, align 4
  %36 = sext i32 %35 to i64
  %37 = getelementptr inbounds [256 x i8], [256 x i8]* %2, i64 0, i64 %36
  %38 = load i8, i8* %37, align 1
  %39 = sext i8 %38 to i32
  %40 = icmp eq i32 %39, 84
  br i1 %40, label %41, label %45

41:                                               ; preds = %34
  %42 = load i32, i32* %5, align 4
  %43 = sext i32 %42 to i64
  %44 = getelementptr inbounds [256 x i8], [256 x i8]* %3, i64 0, i64 %43
  store i8 65, i8* %44, align 1
  br label %70

45:                                               ; preds = %34
  %46 = load i32, i32* %5, align 4
  %47 = sext i32 %46 to i64
  %48 = getelementptr inbounds [256 x i8], [256 x i8]* %2, i64 0, i64 %47
  %49 = load i8, i8* %48, align 1
  %50 = sext i8 %49 to i32
  %51 = icmp eq i32 %50, 67
  br i1 %51, label %52, label %56

52:                                               ; preds = %45
  %53 = load i32, i32* %5, align 4
  %54 = sext i32 %53 to i64
  %55 = getelementptr inbounds [256 x i8], [256 x i8]* %3, i64 0, i64 %54
  store i8 71, i8* %55, align 1
  br label %69

56:                                               ; preds = %45
  %57 = load i32, i32* %5, align 4
  %58 = sext i32 %57 to i64
  %59 = getelementptr inbounds [256 x i8], [256 x i8]* %2, i64 0, i64 %58
  %60 = load i8, i8* %59, align 1
  %61 = sext i8 %60 to i32
  %62 = icmp eq i32 %61, 71
  br i1 %62, label %63, label %67

63:                                               ; preds = %56
  %64 = load i32, i32* %5, align 4
  %65 = sext i32 %64 to i64
  %66 = getelementptr inbounds [256 x i8], [256 x i8]* %3, i64 0, i64 %65
  store i8 67, i8* %66, align 1
  br label %68

67:                                               ; preds = %56
  br label %75

68:                                               ; preds = %63
  br label %69

69:                                               ; preds = %68, %52
  br label %70

70:                                               ; preds = %69, %41
  br label %71

71:                                               ; preds = %70, %30
  br label %72

72:                                               ; preds = %71
  %73 = load i32, i32* %5, align 4
  %74 = add nsw i32 %73, 1
  store i32 %74, i32* %5, align 4
  br label %19

75:                                               ; preds = %67, %19
  store i32 0, i32* %7, align 4
  br label %76

76:                                               ; preds = %87, %75
  %77 = load i32, i32* %7, align 4
  %78 = load i32, i32* %8, align 4
  %79 = icmp slt i32 %77, %78
  br i1 %79, label %80, label %90

80:                                               ; preds = %76
  %81 = load i32, i32* %7, align 4
  %82 = sext i32 %81 to i64
  %83 = getelementptr inbounds [256 x i8], [256 x i8]* %3, i64 0, i64 %82
  %84 = load i8, i8* %83, align 1
  %85 = sext i8 %84 to i32
  %86 = call i32 (i8*, ...) @printf(i8* getelementptr inbounds ([3 x i8], [3 x i8]* @.str.2, i64 0, i64 0), i32 %85)
  br label %87

87:                                               ; preds = %80
  %88 = load i32, i32* %7, align 4
  %89 = add nsw i32 %88, 1
  store i32 %89, i32* %7, align 4
  br label %76

90:                                               ; preds = %76
  %91 = call i32 (i8*, ...) @printf(i8* getelementptr inbounds ([2 x i8], [2 x i8]* @.str.3, i64 0, i64 0))
  br label %92

92:                                               ; preds = %90
  %93 = load i32, i32* %4, align 4
  %94 = add nsw i32 %93, 1
  store i32 %94, i32* %4, align 4
  br label %10

95:                                               ; preds = %10
  ret i32 0
}

declare dso_local i32 @__isoc99_scanf(i8*, ...) #1

; Function Attrs: nounwind readonly
declare dso_local i64 @strlen(i8*) #2

declare dso_local i32 @printf(i8*, ...) #1


!llvm.module.flags = !{!0}
!llvm.ident = !{!1}

!0 = !{i32 1, !"wchar_size", i32 4}
!1 = !{!"clang version 10.0.0-4ubuntu1 "}
