; ModuleID = 'source-C-CXX/32/2392.c'
source_filename = "source-C-CXX/32/2392.c"
target datalayout = "e-m:e-p270:32:32-p271:32:32-p272:64:64-i64:64-f80:128-n8:16:32:64-S128"
target triple = "x86_64-pc-linux-gnu"

@.str = private unnamed_addr constant [4 x i8] c"%d\0A\00", align 1
@.str.1 = private unnamed_addr constant [3 x i8] c"%s\00", align 1

; Function Attrs: nofree nounwind sspstrong uwtable
define dso_local i32 @main() local_unnamed_addr #0 {
  %1 = alloca [256 x i8], align 16
  %2 = alloca [256 x i8], align 16
  %3 = alloca i32, align 4
  %4 = getelementptr inbounds [256 x i8], [256 x i8]* %1, i64 0, i64 0
  call void @llvm.lifetime.start.p0i8(i64 256, i8* nonnull %4) #5
  %5 = getelementptr inbounds [256 x i8], [256 x i8]* %2, i64 0, i64 0
  call void @llvm.lifetime.start.p0i8(i64 256, i8* nonnull %5) #5
  %6 = bitcast i32* %3 to i8*
  call void @llvm.lifetime.start.p0i8(i64 4, i8* nonnull %6) #5
  %7 = call i32 (i8*, ...) @__isoc99_scanf(i8* getelementptr inbounds ([4 x i8], [4 x i8]* @.str, i64 0, i64 0), i32* nonnull %3)
  %8 = load i32, i32* %3, align 4, !tbaa !5
  %9 = icmp sgt i32 %8, 0
  br i1 %9, label %10, label %46

10:                                               ; preds = %0, %41
  %11 = phi i32 [ %43, %41 ], [ 0, %0 ]
  %12 = call i32 (i8*, ...) @__isoc99_scanf(i8* getelementptr inbounds ([3 x i8], [3 x i8]* @.str.1, i64 0, i64 0), [256 x i8]* nonnull %1)
  %13 = call i64 @strlen(i8* noundef nonnull %4) #6
  %14 = trunc i64 %13 to i32
  %15 = icmp sgt i32 %14, 0
  br i1 %15, label %16, label %41

16:                                               ; preds = %10
  %17 = and i64 %13, 4294967295
  br label %18

18:                                               ; preds = %16, %25
  %19 = phi i64 [ 0, %16 ], [ %28, %25 ]
  %20 = getelementptr inbounds [256 x i8], [256 x i8]* %1, i64 0, i64 %19
  %21 = load i8, i8* %20, align 1, !tbaa !9
  switch i8 %21, label %30 [
    i8 65, label %25
    i8 84, label %22
    i8 67, label %23
    i8 71, label %24
  ]

22:                                               ; preds = %18
  br label %25

23:                                               ; preds = %18
  br label %25

24:                                               ; preds = %18
  br label %25

25:                                               ; preds = %18, %23, %24, %22
  %26 = phi i8 [ 71, %23 ], [ 67, %24 ], [ 65, %22 ], [ 84, %18 ]
  %27 = getelementptr inbounds [256 x i8], [256 x i8]* %2, i64 0, i64 %19
  store i8 %26, i8* %27, align 1, !tbaa !9
  %28 = add nuw nsw i64 %19, 1
  %29 = icmp eq i64 %28, %17
  br i1 %29, label %30, label %18, !llvm.loop !10

30:                                               ; preds = %25, %18
  br i1 %15, label %31, label %41

31:                                               ; preds = %30
  %32 = and i64 %13, 4294967295
  br label %33

33:                                               ; preds = %31, %33
  %34 = phi i64 [ 0, %31 ], [ %39, %33 ]
  %35 = getelementptr inbounds [256 x i8], [256 x i8]* %2, i64 0, i64 %34
  %36 = load i8, i8* %35, align 1, !tbaa !9
  %37 = sext i8 %36 to i32
  %38 = call i32 @putchar(i32 %37)
  %39 = add nuw nsw i64 %34, 1
  %40 = icmp eq i64 %39, %32
  br i1 %40, label %41, label %33, !llvm.loop !12

41:                                               ; preds = %33, %10, %30
  %42 = call i32 @putchar(i32 10)
  %43 = add nuw nsw i32 %11, 1
  %44 = load i32, i32* %3, align 4, !tbaa !5
  %45 = icmp slt i32 %43, %44
  br i1 %45, label %10, label %46, !llvm.loop !13

46:                                               ; preds = %41, %0
  call void @llvm.lifetime.end.p0i8(i64 4, i8* nonnull %6) #5
  call void @llvm.lifetime.end.p0i8(i64 256, i8* nonnull %5) #5
  call void @llvm.lifetime.end.p0i8(i64 256, i8* nonnull %4) #5
  ret i32 0
}

; Function Attrs: argmemonly mustprogress nofree nosync nounwind willreturn
declare void @llvm.lifetime.start.p0i8(i64 immarg, i8* nocapture) #1

; Function Attrs: nofree nounwind
declare noundef i32 @__isoc99_scanf(i8* nocapture noundef readonly, ...) local_unnamed_addr #2

; Function Attrs: argmemonly mustprogress nofree nounwind readonly willreturn
declare i64 @strlen(i8* nocapture) local_unnamed_addr #3

; Function Attrs: argmemonly mustprogress nofree nosync nounwind willreturn
declare void @llvm.lifetime.end.p0i8(i64 immarg, i8* nocapture) #1

; Function Attrs: nofree nounwind
declare noundef i32 @putchar(i32 noundef) local_unnamed_addr #4


!llvm.module.flags = !{!0, !1, !2, !3}
!llvm.ident = !{!4}

!0 = !{i32 1, !"wchar_size", i32 4}
!1 = !{i32 7, !"PIC Level", i32 2}
!2 = !{i32 7, !"PIE Level", i32 2}
!3 = !{i32 7, !"uwtable", i32 1}
!4 = !{!"clang version 13.0.0"}
!5 = !{!6, !6, i64 0}
!6 = !{!"int", !7, i64 0}
!7 = !{!"omnipotent char", !8, i64 0}
!8 = !{!"Simple C/C++ TBAA"}
!9 = !{!7, !7, i64 0}
!10 = distinct !{!10, !11}
!11 = !{!"llvm.loop.mustprogress"}
!12 = distinct !{!12, !11}
!13 = distinct !{!13, !11}
